target datalayout = "e-m:e-p270:32:32-p271:32:32-p272:64:64-i64:64-i128:128-f80:128-n8:16:32:64-S128"
target triple = "x86_64-pc-linux-gnu"

%struct.XLogRecordBuffer = type { i64, i64, ptr }
%struct.LogicalDecodingContext = type { ptr, ptr, ptr, ptr, ptr, i8, %struct.OutputPluginCallbacks, %struct.OutputPluginOptions, ptr, ptr, ptr, ptr, ptr, ptr, ptr, i8, i8, i8, i8, i8, i64, i32, i8, i8 }
%struct.OutputPluginCallbacks = type { ptr, ptr, ptr, ptr, ptr, ptr, ptr, ptr, ptr, ptr, ptr, ptr, ptr, ptr, ptr, ptr, ptr, ptr, ptr, ptr, ptr }
%struct.OutputPluginOptions = type { i32, i8 }
%struct.XLogReaderState = type { %struct.XLogReaderRoutine, i64, ptr, i64, i64, i64, i64, i64, i64, i64, i64, ptr, ptr, i64, i8, ptr, ptr, ptr, ptr, ptr, i32, %struct.WALSegmentContext, %struct.WALOpenSegment, i32, i64, i32, i64, i32, i64, i32, ptr, i32, ptr, i8, i8 }
%struct.XLogReaderRoutine = type { ptr, ptr, ptr }
%struct.WALSegmentContext = type { [1024 x i8], i32 }
%struct.WALOpenSegment = type { i32, i64, i32 }
%struct.DecodedXLogRecord = type { i64, i8, ptr, i64, i64, %struct.XLogRecord, i16, i32, ptr, i32, i32, [0 x %struct.DecodedBkpBlock] }
%struct.XLogRecord = type { i32, i32, i64, i8, i8, i32 }
%struct.DecodedBkpBlock = type { i8, %struct.RelFileLocator, i32, i32, i32, i8, i8, i8, ptr, i16, i16, i16, i8, i8, ptr, i16, i16 }
%struct.RelFileLocator = type { i32, i32, i32 }
%struct.xl_running_xacts = type { i32, i32, i8, i32, i32, i32, [0 x i32] }

@.str.1 = private unnamed_addr constant [9 x i8] c"decode.c\00", align 1
@.str.4 = private unnamed_addr constant [41 x i8] c"unexpected RM_STANDBY_ID record type: %u\00", align 1
@__func__.standby_decode = private unnamed_addr constant [15 x i8] c"standby_decode\00", align 1

; Function Attrs: nounwind uwtable
define dso_local void @standby_decode(ptr noundef %0, ptr noundef %1) #0 {
  %3 = alloca ptr, align 8
  %4 = alloca ptr, align 8
  %5 = alloca ptr, align 8
  %6 = alloca ptr, align 8
  %7 = alloca i8, align 1
  %8 = alloca ptr, align 8
  store ptr %0, ptr %3, align 8
  store ptr %1, ptr %4, align 8
  call void @llvm.lifetime.start.p0(i64 8, ptr %5) #8
  %9 = load ptr, ptr %3, align 8
  %10 = getelementptr inbounds nuw %struct.LogicalDecodingContext, ptr %9, i32 0, i32 4
  %11 = load ptr, ptr %10, align 8
  store ptr %11, ptr %5, align 8
  call void @llvm.lifetime.start.p0(i64 8, ptr %6) #8
  %12 = load ptr, ptr %4, align 8
  %13 = getelementptr inbounds nuw %struct.XLogRecordBuffer, ptr %12, i32 0, i32 2
  %14 = load ptr, ptr %13, align 8
  store ptr %14, ptr %6, align 8
  call void @llvm.lifetime.start.p0(i64 1, ptr %7) #8
  %15 = load ptr, ptr %6, align 8
  %16 = getelementptr inbounds nuw %struct.XLogReaderState, ptr %15, i32 0, i32 11
  %17 = load ptr, ptr %16, align 8
  %18 = getelementptr inbounds nuw %struct.DecodedXLogRecord, ptr %17, i32 0, i32 5
  %19 = getelementptr inbounds nuw %struct.XLogRecord, ptr %18, i32 0, i32 3
  %20 = load i8, ptr %19, align 8
  %21 = zext i8 %20 to i32
  %22 = and i32 %21, -16
  %23 = trunc i32 %22 to i8
  store i8 %23, ptr %7, align 1
  %24 = load ptr, ptr %3, align 8
  %25 = getelementptr inbounds nuw %struct.LogicalDecodingContext, ptr %24, i32 0, i32 3
  %26 = load ptr, ptr %25, align 8
  %27 = load ptr, ptr %6, align 8
  %28 = getelementptr inbounds nuw %struct.XLogReaderState, ptr %27, i32 0, i32 11
  %29 = load ptr, ptr %28, align 8
  %30 = getelementptr inbounds nuw %struct.DecodedXLogRecord, ptr %29, i32 0, i32 5
  %31 = getelementptr inbounds nuw %struct.XLogRecord, ptr %30, i32 0, i32 1
  %32 = load i32, ptr %31, align 4
  %33 = load ptr, ptr %4, align 8
  %34 = getelementptr inbounds nuw %struct.XLogRecordBuffer, ptr %33, i32 0, i32 0
  %35 = load i64, ptr %34, align 8
  call void @ReorderBufferProcessXid(ptr noundef %26, i32 noundef %32, i64 noundef %35)
  %36 = load i8, ptr %7, align 1
  %37 = zext i8 %36 to i32
  switch i32 %37, label %55 [
    i32 16, label %38
    i32 0, label %68
    i32 32, label %68
  ]

38:                                               ; preds = %2
  call void @llvm.lifetime.start.p0(i64 8, ptr %8) #8
  %39 = load ptr, ptr %6, align 8
  %40 = getelementptr inbounds nuw %struct.XLogReaderState, ptr %39, i32 0, i32 11
  %41 = load ptr, ptr %40, align 8
  %42 = getelementptr inbounds nuw %struct.DecodedXLogRecord, ptr %41, i32 0, i32 8
  %43 = load ptr, ptr %42, align 8
  store ptr %43, ptr %8, align 8
  %44 = load ptr, ptr %5, align 8
  %45 = load ptr, ptr %4, align 8
  %46 = getelementptr inbounds nuw %struct.XLogRecordBuffer, ptr %45, i32 0, i32 0
  %47 = load i64, ptr %46, align 8
  %48 = load ptr, ptr %8, align 8
  call void @SnapBuildProcessRunningXacts(ptr noundef %44, i64 noundef %47, ptr noundef %48)
  %49 = load ptr, ptr %3, align 8
  %50 = getelementptr inbounds nuw %struct.LogicalDecodingContext, ptr %49, i32 0, i32 3
  %51 = load ptr, ptr %50, align 8
  %52 = load ptr, ptr %8, align 8
  %53 = getelementptr inbounds nuw %struct.xl_running_xacts, ptr %52, i32 0, i32 4
  %54 = load i32, ptr %53, align 4
  call void @ReorderBufferAbortOld(ptr noundef %51, i32 noundef %54)
  call void @llvm.lifetime.end.p0(i64 8, ptr %8) #8
  br label %68

55:                                               ; preds = %2
  br label %56

56:                                               ; preds = %55
  br i1 true, label %57, label %59

57:                                               ; preds = %56
  %58 = call zeroext i1 @errstart_cold(i32 noundef 21, ptr noundef null) #9
  br i1 %58, label %61, label %65

59:                                               ; preds = %56
  %60 = call zeroext i1 @errstart(i32 noundef 21, ptr noundef null)
  br i1 %60, label %61, label %65

61:                                               ; preds = %59, %57
  %62 = load i8, ptr %7, align 1
  %63 = zext i8 %62 to i32
  %64 = call i32 (ptr, ...) @errmsg_internal(ptr noundef @.str.4, i32 noundef %63)
  call void @errfinish(ptr noundef @.str.1, i32 noundef 397, ptr noundef @__func__.standby_decode)
  br label %65

65:                                               ; preds = %61, %59, %57
  unreachable

66:                                               ; No predecessors!
  br label %67

67:                                               ; preds = %66
  br label %68

68:                                               ; preds = %67, %2, %2, %38
  call void @llvm.lifetime.end.p0(i64 1, ptr %7) #8
  call void @llvm.lifetime.end.p0(i64 8, ptr %6) #8
  call void @llvm.lifetime.end.p0(i64 8, ptr %5) #8
  ret void
}