; Function Attrs: nounwind uwtable
define dso_local void @standby_decode(ptr noundef readonly captures(none) %0, ptr noundef readonly captures(none) %1) local_unnamed_addr #0 {
  %3 = getelementptr inbounds nuw i8, ptr %0, i64 32
  %4 = load ptr, ptr %3, align 8
  %5 = getelementptr inbounds nuw i8, ptr %1, i64 16
  %6 = load ptr, ptr %5, align 8
  %7 = getelementptr inbounds nuw i8, ptr %6, i64 104
  %8 = load ptr, ptr %7, align 8
  %9 = getelementptr inbounds nuw i8, ptr %8, i64 56
  %10 = load i8, ptr %9, align 8
  %11 = and i8 %10, -16
  %12 = getelementptr inbounds nuw i8, ptr %0, i64 24
  %13 = load ptr, ptr %12, align 8
  %14 = getelementptr inbounds nuw i8, ptr %8, i64 44
  %15 = load i32, ptr %14, align 4
  %16 = load i64, ptr %1, align 8
  tail call void @ReorderBufferProcessXid(ptr noundef %13, i32 noundef %15, i64 noundef %16) #7
  switch i8 %11, label %25 [
    i8 16, label %17
    i8 0, label %29
    i8 32, label %29
  ]

17:                                               ; preds = %2
  %18 = load ptr, ptr %7, align 8
  %19 = getelementptr inbounds nuw i8, ptr %18, i64 72
  %20 = load ptr, ptr %19, align 8
  %21 = load i64, ptr %1, align 8
  tail call void @SnapBuildProcessRunningXacts(ptr noundef %4, i64 noundef %21, ptr noundef %20) #7
  %22 = load ptr, ptr %12, align 8
  %23 = getelementptr inbounds nuw i8, ptr %20, i64 16
  %24 = load i32, ptr %23, align 4
  tail call void @ReorderBufferAbortOld(ptr noundef %22, i32 noundef %24) #7
  br label %29

25:                                               ; preds = %2
  %26 = zext i8 %11 to i32
  %27 = tail call zeroext i1 @errstart_cold(i32 noundef 21, ptr noundef null) #8
  tail call void @llvm.assume(i1 %27)
  %28 = tail call i32 (ptr, ...) @errmsg_internal(ptr noundef nonnull @.str.4, i32 noundef %26) #7
  tail call void @errfinish(ptr noundef nonnull @.str.1, i32 noundef 397, ptr noundef nonnull @__func__.standby_decode) #7
  unreachable

29:                                               ; preds = %17, %2, %2
  ret void
}